; Function Attrs: mustprogress uwtable
define void @_ZN3gmx8internal28AnalysisDataStorageFrameData10startFrameERKNS_23AnalysisDataFrameHeaderESt10unique_ptrINS_24AnalysisDataStorageFrameESt14default_deleteIS6_EE(ptr noundef nonnull align 8 dereferenceable(84) %0, ptr nocapture noundef nonnull readonly align 4 dereferenceable(12) %1, ptr nocapture noundef %2) local_unnamed_addr #1 align 2 {
  %4 = getelementptr inbounds i8, ptr %0, i64 80
  store i32 1, ptr %4, align 8
  %5 = getelementptr inbounds i8, ptr %0, i64 8
  tail call void @llvm.memcpy.p0.p0.i64(ptr noundef nonnull align 8 dereferenceable(12) %5, ptr noundef nonnull align 4 dereferenceable(12) %1, i64 12, i1 false)
  %6 = getelementptr inbounds i8, ptr %0, i64 72
  %7 = load ptr, ptr %2, align 8
  store ptr null, ptr %2, align 8
  %8 = load ptr, ptr %6, align 8
  store ptr %7, ptr %6, align 8
  %.not.i.i.i.i = icmp eq ptr %8, null
  br i1 %.not.i.i.i.i, label %_ZNSt10unique_ptrIN3gmx24AnalysisDataStorageFrameESt14default_deleteIS1_EEaSEOS4_.exit, label %_ZNKSt14default_deleteIN3gmx24AnalysisDataStorageFrameEEclEPS1_.exit.i.i.i.i

_ZNKSt14default_deleteIN3gmx24AnalysisDataStorageFrameEEclEPS1_.exit.i.i.i.i: ; preds = %3
  tail call void @_ZN3gmx24AnalysisDataStorageFrameD1Ev(ptr noundef nonnull align 8 dereferenceable(45) %8) #22
  tail call void @_ZdlPv(ptr noundef nonnull %8) #21
  %.pre = load ptr, ptr %6, align 8
  br label %_ZNSt10unique_ptrIN3gmx24AnalysisDataStorageFrameESt14default_deleteIS1_EEaSEOS4_.exit

_ZNSt10unique_ptrIN3gmx24AnalysisDataStorageFrameESt14default_deleteIS1_EEaSEOS4_.exit: ; preds = %3, %_ZNKSt14default_deleteIN3gmx24AnalysisDataStorageFrameEEclEPS1_.exit.i.i.i.i
  %9 = phi ptr [ %7, %3 ], [ %.pre, %_ZNKSt14default_deleteIN3gmx24AnalysisDataStorageFrameEEclEPS1_.exit.i.i.i.i ]
  store ptr %0, ptr %9, align 8
  %10 = load ptr, ptr %6, align 8
  tail call void @_ZN3gmx24AnalysisDataStorageFrame13selectDataSetEi(ptr noundef nonnull align 8 dereferenceable(45) %10, i32 noundef 0)
  ret void
}